target datalayout = "e-m:e-p270:32:32-p271:32:32-p272:64:64-i64:64-i128:128-f80:128-n8:16:32:64-S128"
target triple = "x86_64-pc-linux-gnu"

%"class.zxing::qrcode::AlignmentPatternFinder" = type <{ %"class.zxing::Counted.base", [4 x i8], %"class.zxing::Ref", ptr, i32, i32, i32, i32, float, [4 x i8] }>
%"class.zxing::Counted.base" = type <{ ptr, i32 }>
%"class.zxing::Ref" = type { ptr }
%"struct.std::_Vector_base.2" = type { %"struct.std::_Vector_base<int, std::allocator<int>>::_Vector_impl" }
%"struct.std::_Vector_base<int, std::allocator<int>>::_Vector_impl" = type { %"struct.std::_Vector_base<int, std::allocator<int>>::_Vector_impl_data" }
%"struct.std::_Vector_base<int, std::allocator<int>>::_Vector_impl_data" = type { ptr, ptr, ptr }

; Function Attrs: mustprogress nounwind uwtable
define linkonce_odr noundef float @_ZSt3absf(float noundef %0) #1 comdat {
  %2 = alloca float, align 4
  store float %0, ptr %2, align 4
  %3 = load float, ptr %2, align 4
  %4 = call float @llvm.fabs.f32(float %3)
  ret float %4
}

; Function Attrs: mustprogress nounwind uwtable
define linkonce_odr hidden noundef nonnull align 4 dereferenceable(4) ptr @_ZNSt6vectorIiSaIiEEixEm(ptr noundef nonnull align 8 dereferenceable(24) %0, i64 noundef %1) #1 comdat align 2 {
  %3 = alloca ptr, align 8
  %4 = alloca i64, align 8
  store ptr %0, ptr %3, align 8
  store i64 %1, ptr %4, align 8
  %5 = load ptr, ptr %3, align 8
  %6 = getelementptr inbounds %"struct.std::_Vector_base.2", ptr %5, i32 0, i32 0
  %7 = getelementptr inbounds %"struct.std::_Vector_base<int, std::allocator<int>>::_Vector_impl_data", ptr %6, i32 0, i32 0
  %8 = load ptr, ptr %7, align 8
  %9 = load i64, ptr %4, align 8
  %10 = getelementptr inbounds i32, ptr %8, i64 %9
  ret ptr %10
}

; Function Attrs: mustprogress uwtable
define hidden noundef zeroext i1 @_ZN5zxing6qrcode22AlignmentPatternFinder17foundPatternCrossERSt6vectorIiSaIiEE(ptr noundef nonnull align 8 dereferenceable(52) %0, ptr noundef nonnull align 8 dereferenceable(24) %1) #0 align 2 {
  %3 = alloca i1, align 1
  %4 = alloca ptr, align 8
  %5 = alloca ptr, align 8
  %6 = alloca float, align 4
  %7 = alloca i32, align 4
  store ptr %0, ptr %4, align 8
  store ptr %1, ptr %5, align 8
  %8 = load ptr, ptr %4, align 8
  %9 = getelementptr inbounds %"class.zxing::qrcode::AlignmentPatternFinder", ptr %8, i32 0, i32 8
  %10 = load float, ptr %9, align 8
  %11 = fdiv float %10, 2.000000e+00
  store float %11, ptr %6, align 4
  store i32 0, ptr %7, align 4
  br label %12

12:                                               ; preds = %30, %2
  %13 = load i32, ptr %7, align 4
  %14 = icmp slt i32 %13, 3
  br i1 %14, label %15, label %33

15:                                               ; preds = %12
  %16 = getelementptr inbounds %"class.zxing::qrcode::AlignmentPatternFinder", ptr %8, i32 0, i32 8
  %17 = load float, ptr %16, align 8
  %18 = load ptr, ptr %5, align 8
  %19 = load i32, ptr %7, align 4
  %20 = sext i32 %19 to i64
  %21 = call noundef nonnull align 4 dereferenceable(4) ptr @_ZNSt6vectorIiSaIiEEixEm(ptr noundef nonnull align 8 dereferenceable(24) %18, i64 noundef %20) #12
  %22 = load i32, ptr %21, align 4
  %23 = sitofp i32 %22 to float
  %24 = fsub float %17, %23
  %25 = call noundef float @_ZSt3absf(float noundef %24)
  %26 = load float, ptr %6, align 4
  %27 = fcmp oge float %25, %26
  br i1 %27, label %28, label %29

28:                                               ; preds = %15
  store i1 false, ptr %3, align 1
  br label %34

29:                                               ; preds = %15
  br label %30

30:                                               ; preds = %29
  %31 = load i32, ptr %7, align 4
  %32 = add nsw i32 %31, 1
  store i32 %32, ptr %7, align 4
  br label %12, !llvm.loop !8

33:                                               ; preds = %12
  store i1 true, ptr %3, align 1
  br label %34

34:                                               ; preds = %33, %28
  %35 = load i1, ptr %3, align 1
  ret i1 %35
}