; Function Attrs: mustprogress nofree norecurse nosync nounwind willreturn memory(read, inaccessiblemem: none) uwtable
define hidden noundef zeroext i1 @_ZN5zxing6qrcode22AlignmentPatternFinder17foundPatternCrossERSt6vectorIiSaIiEE(ptr nocapture noundef nonnull readonly align 8 dereferenceable(52) %0, ptr nocapture noundef nonnull readonly align 8 dereferenceable(24) %1) local_unnamed_addr #3 align 2 {
  %3 = getelementptr inbounds i8, ptr %0, i64 48
  %4 = load float, ptr %3, align 8
  %5 = fmul float %4, 5.000000e-01
  %6 = load ptr, ptr %1, align 8
  %7 = load i32, ptr %6, align 4
  %8 = sitofp i32 %7 to float
  %9 = fsub float %4, %8
  %10 = tail call noundef float @llvm.fabs.f32(float %9)
  %11 = fcmp ult float %10, %5
  br i1 %11, label %.lr.ph, label %._crit_edge

.lr.ph:                                           ; preds = %2, %12
  %indvars.iv8 = phi i64 [ %indvars.iv.next, %12 ], [ 0, %2 ]
  %indvars.iv.next = add nuw nsw i64 %indvars.iv8, 1
  %exitcond = icmp eq i64 %indvars.iv.next, 3
  br i1 %exitcond, label %._crit_edge.loopexit, label %12, !llvm.loop !6

12:                                               ; preds = %.lr.ph
  %13 = getelementptr inbounds i32, ptr %6, i64 %indvars.iv.next
  %14 = load i32, ptr %13, align 4
  %15 = sitofp i32 %14 to float
  %16 = fsub float %4, %15
  %17 = tail call noundef float @llvm.fabs.f32(float %16)
  %18 = fcmp ult float %17, %5
  br i1 %18, label %.lr.ph, label %._crit_edge.loopexit, !llvm.loop !6

._crit_edge.loopexit:                             ; preds = %.lr.ph, %12
  %19 = icmp ugt i64 %indvars.iv8, 1
  br label %._crit_edge

._crit_edge:                                      ; preds = %._crit_edge.loopexit, %2
  %.lcssa = phi i1 [ false, %2 ], [ %19, %._crit_edge.loopexit ]
  ret i1 %.lcssa
}